MPASM 5.87                      ASCENSOR.ASM   6-19-2023  23:52:22         PAGE  1


LOC  OBJECT CODE     LINE SOURCE TEXT
  VALUE

                      00001 ;*------------------------------------------------------------------------------
                      00002 ;* Descripcion del Hardware: 
                      00003 ;* Display de 7 segmentos de catodo comun conectado
                      00004 ;* al puerto D. Motor conectado a los pines RC0 y RC1. Buzzer de llegada al piso
                      00005 ;* conectado al puerto RC2. Luz interna del ascensor al puerto RC3
                      00006 ;* Teclado matricial 4x4 conectado al puerto b.
                      00007 ;*------------------------------------------------------------------------------
                      00008 ; Autor: Franco Mamani
                      00009 ;*------------------------------------------------------------------------------
                      00010 ;*******************************************************************************
                      00011 
                      00012 ;****Encabezado****
                      00013     LIST P=16F887
                      00014     #INCLUDE "p16f887.inc"
                      00001         LIST
                      00002 
                      00003 ;==========================================================================
                      00004 ; Build date : Jan 06 2020
                      00005 ;  MPASM PIC16F887 processor include
                      00006 ; 
                      00007 ;  (c) Copyright 1999-2020 Microchip Technology, All rights reserved
                      00008 ;==========================================================================
                      00009 
                      00810         LIST
                      00015 
                      00016 ;****Configuracion General****
                      00017         ; CONFIG1
                      00018         ; __config 0x2FF1
2007   2FF1           00019             __CONFIG _CONFIG1, _FOSC_XT & _WDTE_OFF & _PWRTE_OFF & _MCLRE_ON & _CP_OFF & _CPD_OFF & _BOR
                            EN_ON & _IESO_ON & _FCMEN_ON & _LVP_OFF
                      00020         ; CONFIG2
                      00021         ; __config 0x3FFF
2008   3FFF           00022             __CONFIG _CONFIG2, _BOR4V_BOR40V & _WRT_OFF
                      00023 
                      00024 ;****Definicion de Variables****
                      00025             
                      00026         CBLOCK      0x20
  00000020            00027         PISO_ACTUAL     
  00000021            00028         PISO_OBJETIVO
  00000022            00029         CONTADOR_PITS
                      00030         ENDC
                      00031         
                      00032         CBLOCK  0x70
  00000070            00033         W_TEMP
  00000071            00034         STATUS_TEMP
  00000072            00035         FLAGS_REG   
  00000073            00036         SHIFTREG     
  00000074            00037         TECLA_PRESIONADA   
  00000075            00038         PRESIONADO
  00000076            00039         DELAY1
  00000077            00040         DELAY2
  00000078            00041         DELAY3
  00000079            00042         CONTADOR_TECLADO
MPASM 5.87                      ASCENSOR.ASM   6-19-2023  23:52:22         PAGE  2


LOC  OBJECT CODE     LINE SOURCE TEXT
  VALUE

  0000007A            00043         CONTADOR_TIMER
                      00044         ENDC
                      00045 ;****Inicio del Micro****
                      00046         ORG 0x00
0000   2???           00047         GOTO    INICIO
                      00048         ORG 0x04
0004   2???           00049         GOTO    ISR_INICIO
                      00050         ORG 0x05
                      00051 
                      00052 
0005                  00053 INICIO  
                      00054         ;Configuracion de puertos de salida
                      00055         ;Configuracion del display
0005   1683 1303      00056         BANKSEL TRISD
Message[302]: Register in operand not in bank 0.  Ensure that bank bits are correct.
0007   0188           00057         CLRF    TRISD
                      00058         ;Configuracion puerto c. RC6 como salida por TX, y RC7 como entrada 
Message[302]: Register in operand not in bank 0.  Ensure that bank bits are correct.
0008   0187           00059         CLRF    TRISC
                      00060         ;Configuracion TRANSMISION
0009   1683 1303      00061         BANKSEL SPBRG
000B   3019           00062         MOVLW   .25
Message[302]: Register in operand not in bank 0.  Ensure that bank bits are correct.
000C   0099           00063         MOVWF   SPBRG
000D   3024           00064         MOVLW   b'00100100'
Message[302]: Register in operand not in bank 0.  Ensure that bank bits are correct.
000E   0098           00065         MOVWF   TXSTA
000F   1283 1303      00066         BANKSEL RCSTA
0011   3080           00067         MOVLW   b'10000000'
0012   0098           00068         MOVWF   RCSTA
                      00069         ;configuracion de entradas
0013   1683 1703      00070         BANKSEL ANSEL
Message[302]: Register in operand not in bank 0.  Ensure that bank bits are correct.
0015   0189           00071         CLRF    ANSELH
0016   30F0           00072         MOVLW   b'11110000' ;(RB0,RB3) Como salida, (RB4,RB7 como como entrada)
Message[302]: Register in operand not in bank 0.  Ensure that bank bits are correct.
0017   0086           00073         MOVWF   TRISB
                      00074         ;configuracion general
0018   1683 1303      00075         BANKSEL WPUB
001A   3007           00076         MOVLW   b'00000111' ;habilito pullups, configuro prescaler a 256, y lo asigno al TMR0
Message[302]: Register in operand not in bank 0.  Ensure that bank bits are correct.
001B   0081           00077         MOVWF   OPTION_REG
001C   30F0           00078         MOVLW   b'11110000'
Message[302]: Register in operand not in bank 0.  Ensure that bank bits are correct.
001D   0095           00079         MOVWF   WPUB
                      00080         ;configuracion de interrupciones
001E   3088           00081         MOVLW   b'10001000'; habilito interrupciones globales, rb. AQUI HABILITAR INTERRPCIONES POR PUER
                            TO SERIE SI SE PUEDE
001F   008B           00082         MOVWF   INTCON
0020   30F0           00083         MOVLW   b'11110000' ;interrupcion por puerto b solo a RB4,RB5,RB6,RB7
Message[302]: Register in operand not in bank 0.  Ensure that bank bits are correct.
0021   0096           00084         MOVWF   IOCB
                      00085         
MPASM 5.87                      ASCENSOR.ASM   6-19-2023  23:52:22         PAGE  3


LOC  OBJECT CODE     LINE SOURCE TEXT
  VALUE

                      00086 ;Programa principal
                      00087          ;inicializaciones
0022   1283 1303      00088          BANKSEL PORTD
0024   30F0           00089          MOVLW  b'11110000'
0025   0086           00090          MOVWF  PORTB
0026   0187           00091          CLRF   PORTC
0027   0188           00092          CLRF   PORTD
0028   01A0           00093          CLRF   PISO_ACTUAL
0029   1420           00094          BSF    PISO_ACTUAL,0
002A   01A1           00095          CLRF   PISO_OBJETIVO
002B   01F2           00096          CLRF   FLAGS_REG
002C   01F3           00097          CLRF   SHIFTREG
002D   01F4           00098          CLRF   TECLA_PRESIONADA
002E   01F5           00099          CLRF   PRESIONADO
                      00100          ;manda piso actual
002F   3031           00101          MOVLW  0x31
0030   0099           00102          MOVWF  TXREG
                      00103          ;queda mostrando el display
0031                  00104 LOOP_MAIN        
0031   1C75           00105          BTFSS  PRESIONADO,0
0032   2???           00106          GOTO   MOSTRAR
0033   300F           00107          MOVLW  .15
0034   0274           00108          SUBWF  TECLA_PRESIONADA,W
0035   1903           00109          BTFSC  STATUS,Z
0036   2???           00110          GOTO   EMERGENCIA
0037   1075           00111          BCF    PRESIONADO,0
0038   3005           00112          MOVLW  .5
0039   0274           00113          SUBWF  TECLA_PRESIONADA,W
003A   1803           00114          BTFSC  STATUS,C
003B   2???           00115          GOTO   VERIF2
003C   1572           00116          BSF    FLAGS_REG,2
003D   2???           00117          GOTO   TESTEAR
003E                  00118 VERIF2
003E   1172           00119          BCF    FLAGS_REG,2
003F   3009           00120          MOVLW  .9
0040   0274           00121          SUBWF  TECLA_PRESIONADA,W
0041   1803           00122          BTFSC  STATUS,C
0042   2???           00123          GOTO   TESTEAR
0043   2???           00124          GOTO   RESTAR
0044                  00125 RESTAR
                      00126          ;enviar piso actual
0044   3026           00127          MOVLW  0x26
0045   0774           00128          ADDWF  TECLA_PRESIONADA,W
0046   0099           00129          MOVWF  TXREG
0047   3004           00130          MOVLW  .4
0048   02F4           00131          SUBWF  TECLA_PRESIONADA,F
0049                  00132 TESTEAR
0049   1C72           00133          BTFSS  FLAGS_REG,0
004A   2???           00134          GOTO   NO_FUNCIONANDO
004B   1972           00135          BTFSC  FLAGS_REG,2
004C   2???           00136          GOTO   MOSTRAR
004D   0874           00137          MOVF   TECLA_PRESIONADA,W
004E   00A0           00138          MOVWF  PISO_ACTUAL
MPASM 5.87                      ASCENSOR.ASM   6-19-2023  23:52:22         PAGE  4


LOC  OBJECT CODE     LINE SOURCE TEXT
  VALUE

004F   0221           00139          SUBWF  PISO_OBJETIVO,W
0050   1D03           00140          BTFSS  STATUS,Z
0051   2???           00141          GOTO   MOSTRAR
0052   1007           00142          BCF    PORTC,0
0053   1087           00143          BCF    PORTC,1
0054   18F2           00144          BTFSC  FLAGS_REG,1
0055   2???           00145          GOTO   MOSTRAR
0056   14F2           00146          BSF    FLAGS_REG,1
0057   303D           00147          MOVLW  .61
0058   0081           00148          MOVWF  TMR0
0059   3014           00149          MOVLW  .20
005A   00FA           00150          MOVWF  CONTADOR_TIMER
005B   3005           00151          MOVLW  .5
005C   00A2           00152          MOVWF  CONTADOR_PITS
005D   110B           00153          BCF    INTCON,T0IF
005E   168B           00154          BSF    INTCON,T0IE
005F   2???           00155          GOTO   MOSTRAR
0060                  00156 NO_FUNCIONANDO
0060   0874           00157          MOVF   TECLA_PRESIONADA,W
0061   00A1           00158          MOVWF  PISO_OBJETIVO
0062   0220           00159          SUBWF  PISO_ACTUAL,W
0063   1903           00160          BTFSC  STATUS,Z
0064   2???           00161          GOTO   MOSTRAR
0065   1472           00162          BSF    FLAGS_REG,0
0066   1803           00163          BTFSC  STATUS,C
0067   2???           00164          GOTO   ARRIBA
0068   2???           00165          GOTO   ABAJO
0069                  00166 ARRIBA
0069   1407           00167          BSF    PORTC,0
006A   1087           00168          BCF    PORTC,1
006B   2???           00169          GOTO   MOSTRAR
006C                  00170 ABAJO
006C   1007           00171          BCF    PORTC,0
006D   1487           00172          BSF    PORTC,1
006E   2???           00173          GOTO   MOSTRAR
                      00174          
006F   2???           00175 MOSTRAR  CALL   MOSTRAR_DSPL
0070   2???           00176          GOTO   LOOP_MAIN
0071                  00177 EMERGENCIA
0071   1507           00178          BSF    PORTC,2
0072   1007           00179          BCF    PORTC,0
0073   1087           00180          BCF    PORTC,1
0074   3045           00181          MOVLW  0x45
0075   0099           00182          MOVWF  TXREG
0076   2???           00183          GOTO   $-1
0077                  00184 MOSTRAR_DSPL
0077   0820           00185          MOVF   PISO_ACTUAL,W
0078   2???           00186          CALL   TABLA_DSPL
0079   0088           00187          MOVWF  PORTD
007A   0008           00188          RETURN
                      00189 
007B                  00190 TABLA_DSPL
007B   0782           00191          ADDWF  PCL,F
MPASM 5.87                      ASCENSOR.ASM   6-19-2023  23:52:22         PAGE  5


LOC  OBJECT CODE     LINE SOURCE TEXT
  VALUE

007C   343F           00192          RETLW  0x3F
007D   3406           00193          RETLW  0x06
007E   345B           00194          RETLW  0x5B
007F   344F           00195          RETLW  0x4F
0080   3466           00196          RETLW  0x66 
0081   346D           00197          RETLW  0x6D
0082   347D           00198          RETLW  0x7D
0083   3407           00199          RETLW  0x07
0084   347F           00200          RETLW  0x7F
0085   346F           00201          RETLW  0x6F
0086   3477           00202          RETLW  0x77
0087   347C           00203          RETLW  0x7C
0088   3439           00204          RETLW  0x39
0089   345E           00205          RETLW  0x5E
008A   3479           00206          RETLW  0x79
008B   3471           00207          RETLW  0x71
                      00208 
008C                  00209 TABLA_TECLADO
008C   0782           00210          ADDWF  PCL,F
008D   3404           00211          RETLW  .4
008E   3404           00212          RETLW  .4
008F   3408           00213          RETLW  .8
0090   340C           00214          RETLW  .12
0091   3403           00215          RETLW  .3
0092   3403           00216          RETLW  .3
0093   3407           00217          RETLW  .7
0094   340D           00218          RETLW  .13
0095   3402           00219          RETLW  .2
0096   3402           00220          RETLW  .2
0097   3406           00221          RETLW  .6
0098   340E           00222          RETLW  .14
0099   3401           00223          RETLW  .1
009A   3401           00224          RETLW  .1
009B   3405           00225          RETLW  .5
009C   340F           00226          RETLW  .15
009D                  00227 RETARDO
009D   30D2           00228         MOVLW   D'210'
009E   00F6           00229         MOVWF   DELAY1
009F   3003           00230 LOOP1   MOVLW   D'3'
00A0   00F7           00231         MOVWF   DELAY2
00A1   3001           00232 LOOP2   MOVLW   D'1'
00A2   00F8           00233         MOVWF   DELAY3
00A3   0BF8           00234 LOOP3   DECFSZ  DELAY3,F
00A4   2???           00235         GOTO    LOOP3
00A5   0BF7           00236         DECFSZ  DELAY2,F
00A6   2???           00237         GOTO    LOOP2
00A7   0BF6           00238         DECFSZ  DELAY1,F
00A8   2???           00239         GOTO    LOOP1
00A9   0008           00240         RETURN
00AA                  00241 ISR_INICIO
                      00242         ;GUARDAR CONTEXTO
00AA   00F0           00243         MOVWF   W_TEMP
00AB   0E03           00244         SWAPF   STATUS,W
MPASM 5.87                      ASCENSOR.ASM   6-19-2023  23:52:22         PAGE  6


LOC  OBJECT CODE     LINE SOURCE TEXT
  VALUE

00AC   00F1           00245         MOVWF   STATUS_TEMP
                      00246         ;INTERRUPCION
00AD   190B           00247         BTFSC   INTCON,T0IF
00AE   2???           00248         GOTO    ISR_TIMER
00AF   1C0B           00249         BTFSS   INTCON,RBIF
00B0   2???           00250         GOTO    FIN_INTE
                      00251         ;Interrupcion por Puerto B
00B1   01F9           00252         CLRF    CONTADOR_TECLADO
00B2   300F           00253         MOVLW   b'00001111'
00B3   00F3           00254         MOVWF   SHIFTREG
00B4   1003           00255 LOOPI   BCF     STATUS,C
00B5   0DF3           00256         RLF     SHIFTREG,F
00B6   0873           00257         MOVF    SHIFTREG,W
00B7   0086           00258         MOVWF   PORTB
00B8   1E06           00259         BTFSS   PORTB,RB4
00B9   2???           00260         GOTO    FIN_RB
Message[305]: Using default destination of 1 (file).
00BA   0AF9           00261         INCF    CONTADOR_TECLADO
00BB   1E86           00262         BTFSS   PORTB,RB5
00BC   2???           00263         GOTO    FIN_RB
Message[305]: Using default destination of 1 (file).
00BD   0AF9           00264         INCF    CONTADOR_TECLADO
00BE   1F06           00265         BTFSS   PORTB,RB6
00BF   2???           00266         GOTO    FIN_RB
Message[305]: Using default destination of 1 (file).
00C0   0AF9           00267         INCF    CONTADOR_TECLADO
00C1   1F86           00268         BTFSS   PORTB,RB7
00C2   2???           00269         GOTO    FIN_RB
Message[305]: Using default destination of 1 (file).
00C3   0AF9           00270         INCF    CONTADOR_TECLADO
00C4   3010           00271         MOVLW   0x10
00C5   0279           00272         SUBWF   CONTADOR_TECLADO,W
00C6   1D03           00273         BTFSS   STATUS,Z
00C7   2???           00274         GOTO    LOOPI
00C8   2???           00275         GOTO    NINGUNA_TECLA
00C9   2???           00276 FIN_RB  CALL    RETARDO
00CA   1475           00277         BSF     PRESIONADO,0
00CB   0879           00278         MOVF    CONTADOR_TECLADO,W
00CC   2???           00279         CALL    TABLA_TECLADO
00CD   00F4           00280         MOVWF   TECLA_PRESIONADA
00CE                  00281 NINGUNA_TECLA
00CE   1283 1303      00282         BANKSEL INTCON
00D0   100B           00283         BCF     INTCON,RBIF
00D1   2???           00284         GOTO    FIN_INTE
                      00285         ;Interrupcion por timer 0
00D2                  00286 ISR_TIMER
00D2   110B           00287         BCF     INTCON,T0IF
00D3   1CF2           00288         BTFSS   FLAGS_REG,1
00D4   2???           00289         GOTO    FIN_INTE
00D5   0BFA           00290         DECFSZ  CONTADOR_TIMER,F
00D6   2???           00291         GOTO    CONTINUE
00D7   2???           00292         GOTO    FIN_TMR0
00D8                  00293 CONTINUE
MPASM 5.87                      ASCENSOR.ASM   6-19-2023  23:52:22         PAGE  7


LOC  OBJECT CODE     LINE SOURCE TEXT
  VALUE

00D8   1507           00294         BSF     PORTC,2
00D9   303D           00295         MOVLW   .61
00DA   0081           00296         MOVWF   TMR0
00DB   2???           00297         GOTO    FIN_INTE
00DC                  00298 FIN_TMR0
00DC   1107           00299         BCF     PORTC,2
00DD   128B           00300         BCF     INTCON,T0IE
00DE   01F2           00301         CLRF    FLAGS_REG
                      00302         
                      00303         ;--------rutina por timer0----------------
00DF                  00304 FIN_INTE        ;RECUPERAR CONTEXTO
00DF   0E71           00305         SWAPF   STATUS_TEMP,W
00E0   0083           00306         MOVWF   STATUS
00E1   0EF0           00307         SWAPF   W_TEMP,F
00E2   0E70           00308         SWAPF   W_TEMP,W
00E3   0009           00309         RETFIE
2FF1 3FFF             00310         END
MPASM 5.87                      ASCENSOR.ASM   6-19-2023  23:52:22         PAGE  8


SYMBOL TABLE
  LABEL                             VALUE 

ABAJO                             0000006C
ABDEN                             00000000
ABDOVF                            00000007
ACKDT                             00000005
ACKEN                             00000004
ACKSTAT                           00000006
ADCON0                            0000001F
ADCON1                            0000009F
ADCS0                             00000006
ADCS1                             00000007
ADDEN                             00000003
ADFM                              00000007
ADIE                              00000006
ADIF                              00000006
ADON                              00000000
ADRESH                            0000001E
ADRESL                            0000009E
ANS0                              00000000
ANS1                              00000001
ANS10                             00000002
ANS11                             00000003
ANS12                             00000004
ANS13                             00000005
ANS2                              00000002
ANS3                              00000003
ANS4                              00000004
ANS5                              00000005
ANS6                              00000006
ANS7                              00000007
ANS8                              00000000
ANS9                              00000001
ANSEL                             00000188
ANSELH                            00000189
ARRIBA                            00000069
BAUDCTL                           00000187
BCLIE                             00000003
BCLIF                             00000003
BF                                00000000
BRG0                              00000000
BRG1                              00000001
BRG10                             00000002
BRG11                             00000003
BRG12                             00000004
BRG13                             00000005
BRG14                             00000006
BRG15                             00000007
BRG16                             00000003
BRG2                              00000002
BRG3                              00000003
BRG4                              00000004
BRG5                              00000005
BRG6                              00000006
BRG7                              00000007
MPASM 5.87                      ASCENSOR.ASM   6-19-2023  23:52:22         PAGE  9


SYMBOL TABLE
  LABEL                             VALUE 

BRG8                              00000000
BRG9                              00000001
BRGH                              00000002
C                                 00000000
C1CH0                             00000000
C1CH1                             00000001
C1IE                              00000005
C1IF                              00000005
C1OE                              00000005
C1ON                              00000007
C1OUT                             00000006
C1POL                             00000004
C1R                               00000002
C1RSEL                            00000005
C1SEN                             00000005
C2CH0                             00000000
C2CH1                             00000001
C2IE                              00000006
C2IF                              00000006
C2OE                              00000005
C2ON                              00000007
C2OUT                             00000006
C2POL                             00000004
C2R                               00000002
C2REN                             00000004
C2RSEL                            00000004
C2SYNC                            00000000
CCP1CON                           00000017
CCP1IE                            00000002
CCP1IF                            00000002
CCP1M0                            00000000
CCP1M1                            00000001
CCP1M2                            00000002
CCP1M3                            00000003
CCP1X                             00000005
CCP1Y                             00000004
CCP2CON                           0000001D
CCP2IE                            00000000
CCP2IF                            00000000
CCP2M0                            00000000
CCP2M1                            00000001
CCP2M2                            00000002
CCP2M3                            00000003
CCP2X                             00000005
CCP2Y                             00000004
CCPR1                             00000015
CCPR1H                            00000016
CCPR1L                            00000015
CCPR2                             0000001B
CCPR2H                            0000001C
CCPR2L                            0000001B
CHS0                              00000002
CHS1                              00000003
MPASM 5.87                      ASCENSOR.ASM   6-19-2023  23:52:22         PAGE 10


SYMBOL TABLE
  LABEL                             VALUE 

CHS2                              00000004
CHS3                              00000005
CKE                               00000006
CKP                               00000004
CM1CON0                           00000107
CM2CON0                           00000108
CM2CON1                           00000109
CONTADOR_PITS                     00000022
CONTADOR_TECLADO                  00000079
CONTADOR_TIMER                    0000007A
CONTINUE                          000000D8
CREN                              00000004
CSRC                              00000007
D                                 00000005
DATA_ADDRESS                      00000005
DC                                00000001
DC1B0                             00000004
DC1B1                             00000005
DC2B0                             00000004
DC2B1                             00000005
DELAY1                            00000076
DELAY2                            00000077
DELAY3                            00000078
D_A                               00000005
D_NOT_A                           00000005
ECCPAS                            0000009C
ECCPAS0                           00000004
ECCPAS1                           00000005
ECCPAS2                           00000006
ECCPASE                           00000007
EEADR                             0000010D
EEADRH                            0000010F
EECON1                            0000018C
EECON2                            0000018D
EEDAT                             0000010C
EEDATA                            0000010C
EEDATH                            0000010E
EEIE                              00000004
EEIF                              00000004
EEPGD                             00000007
EMERGENCIA                        00000071
F                                 00000001
FERR                              00000002
FIN_INTE                          000000DF
FIN_RB                            000000C9
FIN_TMR0                          000000DC
FLAGS_REG                         00000072
FSR                               00000004
FVREN                             00000000
GCEN                              00000007
GIE                               00000007
GO                                00000001
GO_DONE                           00000001
MPASM 5.87                      ASCENSOR.ASM   6-19-2023  23:52:22         PAGE 11


SYMBOL TABLE
  LABEL                             VALUE 

GO_NOT_DONE                       00000001
HTS                               00000002
I2C_DATA                          00000005
I2C_READ                          00000002
I2C_START                         00000003
I2C_STOP                          00000004
INDF                              00000000
INICIO                            00000005
INTCON                            0000000B
INTE                              00000004
INTEDG                            00000006
INTF                              00000001
IOCB                              00000096
IOCB0                             00000000
IOCB1                             00000001
IOCB2                             00000002
IOCB3                             00000003
IOCB4                             00000004
IOCB5                             00000005
IOCB6                             00000006
IOCB7                             00000007
IRCF0                             00000004
IRCF1                             00000005
IRCF2                             00000006
IRP                               00000007
ISR_INICIO                        000000AA
ISR_TIMER                         000000D2
LOOP1                             0000009F
LOOP2                             000000A1
LOOP3                             000000A3
LOOPI                             000000B4
LOOP_MAIN                         00000031
LTS                               00000001
MC1OUT                            00000007
MC2OUT                            00000006
MOSTRAR                           0000006F
MOSTRAR_DSPL                      00000077
MSK                               00000093
MSK0                              00000000
MSK1                              00000001
MSK2                              00000002
MSK3                              00000003
MSK4                              00000004
MSK5                              00000005
MSK6                              00000006
MSK7                              00000007
NINGUNA_TECLA                     000000CE
NOT_A                             00000005
NOT_ADDRESS                       00000005
NOT_BO                            00000000
NOT_BOR                           00000000
NOT_DONE                          00000001
NOT_PD                            00000003
MPASM 5.87                      ASCENSOR.ASM   6-19-2023  23:52:22         PAGE 12


SYMBOL TABLE
  LABEL                             VALUE 

NOT_POR                           00000001
NOT_RBPU                          00000007
NOT_RC8                           00000006
NOT_T1SYNC                        00000002
NOT_TO                            00000004
NOT_TX8                           00000006
NOT_W                             00000002
NOT_WRITE                         00000002
NO_FUNCIONANDO                    00000060
OERR                              00000001
OPTION_REG                        00000081
OSCCON                            0000008F
OSCTUNE                           00000090
OSFIE                             00000007
OSFIF                             00000007
OSTS                              00000003
P                                 00000004
P1M0                              00000006
P1M1                              00000007
PCL                               00000002
PCLATH                            0000000A
PCON                              0000008E
PDC0                              00000000
PDC1                              00000001
PDC2                              00000002
PDC3                              00000003
PDC4                              00000004
PDC5                              00000005
PDC6                              00000006
PEIE                              00000006
PEN                               00000002
PIE1                              0000008C
PIE2                              0000008D
PIR1                              0000000C
PIR2                              0000000D
PISO_ACTUAL                       00000020
PISO_OBJETIVO                     00000021
PORTA                             00000005
PORTB                             00000006
PORTC                             00000007
PORTD                             00000008
PORTE                             00000009
PR2                               00000092
PRESIONADO                        00000075
PRSEN                             00000007
PS0                               00000000
PS1                               00000001
PS2                               00000002
PSA                               00000003
PSSAC0                            00000002
PSSAC1                            00000003
PSSBD0                            00000000
PSSBD1                            00000001
MPASM 5.87                      ASCENSOR.ASM   6-19-2023  23:52:22         PAGE 13


SYMBOL TABLE
  LABEL                             VALUE 

PSTRCON                           0000009D
PULSR                             00000002
PULSS                             00000003
PWM1CON                           0000009B
R                                 00000002
RA0                               00000000
RA1                               00000001
RA2                               00000002
RA3                               00000003
RA4                               00000004
RA5                               00000005
RA6                               00000006
RA7                               00000007
RB0                               00000000
RB1                               00000001
RB2                               00000002
RB3                               00000003
RB4                               00000004
RB5                               00000005
RB6                               00000006
RB7                               00000007
RBIE                              00000003
RBIF                              00000000
RC0                               00000000
RC1                               00000001
RC2                               00000002
RC3                               00000003
RC4                               00000004
RC5                               00000005
RC6                               00000006
RC7                               00000007
RC8_9                             00000006
RC9                               00000006
RCD8                              00000000
RCEN                              00000003
RCIDL                             00000006
RCIE                              00000005
RCIF                              00000005
RCREG                             0000001A
RCSTA                             00000018
RD                                00000000
RD0                               00000000
RD1                               00000001
RD2                               00000002
RD3                               00000003
RD4                               00000004
RD5                               00000005
RD6                               00000006
RD7                               00000007
RE0                               00000000
RE1                               00000001
RE2                               00000002
RE3                               00000003
MPASM 5.87                      ASCENSOR.ASM   6-19-2023  23:52:22         PAGE 14


SYMBOL TABLE
  LABEL                             VALUE 

READ_WRITE                        00000002
RESTAR                            00000044
RETARDO                           0000009D
RP0                               00000005
RP1                               00000006
RSEN                              00000001
RX9                               00000006
RX9D                              00000000
R_NOT_W                           00000002
R_W                               00000002
S                                 00000003
SBOREN                            00000004
SCKP                              00000004
SCS                               00000000
SEN                               00000000
SENDB                             00000003
SHIFTREG                          00000073
SMP                               00000007
SPBRG                             00000099
SPBRGH                            0000009A
SPEN                              00000007
SR0                               00000006
SR1                               00000007
SRCON                             00000185
SREN                              00000005
SSPADD                            00000093
SSPBUF                            00000013
SSPCON                            00000014
SSPCON2                           00000091
SSPEN                             00000005
SSPIE                             00000003
SSPIF                             00000003
SSPM0                             00000000
SSPM1                             00000001
SSPM2                             00000002
SSPM3                             00000003
SSPMSK                            00000093
SSPOV                             00000006
SSPSTAT                           00000094
STATUS                            00000003
STATUS_TEMP                       00000071
STRA                              00000000
STRB                              00000001
STRC                              00000002
STRD                              00000003
STRSYNC                           00000004
SWDTEN                            00000000
SYNC                              00000004
T0CS                              00000005
T0IE                              00000005
T0IF                              00000002
T0SE                              00000004
T1CKPS0                           00000004
MPASM 5.87                      ASCENSOR.ASM   6-19-2023  23:52:22         PAGE 15


SYMBOL TABLE
  LABEL                             VALUE 

T1CKPS1                           00000005
T1CON                             00000010
T1GINV                            00000007
T1GIV                             00000007
T1GSS                             00000001
T1INSYNC                          00000002
T1OSCEN                           00000003
T1SYNC                            00000002
T2CKPS0                           00000000
T2CKPS1                           00000001
T2CON                             00000012
TABLA_DSPL                        0000007B
TABLA_TECLADO                     0000008C
TECLA_PRESIONADA                  00000074
TESTEAR                           00000049
TMR0                              00000001
TMR0IE                            00000005
TMR0IF                            00000002
TMR1                              0000000E
TMR1CS                            00000001
TMR1GE                            00000006
TMR1H                             0000000F
TMR1IE                            00000000
TMR1IF                            00000000
TMR1L                             0000000E
TMR1ON                            00000000
TMR2                              00000011
TMR2IE                            00000001
TMR2IF                            00000001
TMR2ON                            00000002
TOUTPS0                           00000003
TOUTPS1                           00000004
TOUTPS2                           00000005
TOUTPS3                           00000006
TRISA                             00000085
TRISA0                            00000000
TRISA1                            00000001
TRISA2                            00000002
TRISA3                            00000003
TRISA4                            00000004
TRISA5                            00000005
TRISA6                            00000006
TRISA7                            00000007
TRISB                             00000086
TRISB0                            00000000
TRISB1                            00000001
TRISB2                            00000002
TRISB3                            00000003
TRISB4                            00000004
TRISB5                            00000005
TRISB6                            00000006
TRISB7                            00000007
TRISC                             00000087
MPASM 5.87                      ASCENSOR.ASM   6-19-2023  23:52:22         PAGE 16


SYMBOL TABLE
  LABEL                             VALUE 

TRISC0                            00000000
TRISC1                            00000001
TRISC2                            00000002
TRISC3                            00000003
TRISC4                            00000004
TRISC5                            00000005
TRISC6                            00000006
TRISC7                            00000007
TRISD                             00000088
TRISD0                            00000000
TRISD1                            00000001
TRISD2                            00000002
TRISD3                            00000003
TRISD4                            00000004
TRISD5                            00000005
TRISD6                            00000006
TRISD7                            00000007
TRISE                             00000089
TRISE0                            00000000
TRISE1                            00000001
TRISE2                            00000002
TRISE3                            00000003
TRMT                              00000001
TUN0                              00000000
TUN1                              00000001
TUN2                              00000002
TUN3                              00000003
TUN4                              00000004
TX8_9                             00000006
TX9                               00000006
TX9D                              00000000
TXD8                              00000000
TXEN                              00000005
TXIE                              00000004
TXIF                              00000004
TXREG                             00000019
TXSTA                             00000098
UA                                00000001
ULPWUE                            00000005
ULPWUIE                           00000002
ULPWUIF                           00000002
VCFG0                             00000004
VCFG1                             00000005
VERIF2                            0000003E
VR0                               00000000
VR1                               00000001
VR2                               00000002
VR3                               00000003
VRCON                             00000097
VREN                              00000007
VROE                              00000006
VRR                               00000005
VRSS                              00000004
MPASM 5.87                      ASCENSOR.ASM   6-19-2023  23:52:22         PAGE 17


SYMBOL TABLE
  LABEL                             VALUE 

W                                 00000000
WCOL                              00000007
WDTCON                            00000105
WDTPS0                            00000001
WDTPS1                            00000002
WDTPS2                            00000003
WDTPS3                            00000004
WPUB                              00000095
WPUB0                             00000000
WPUB1                             00000001
WPUB2                             00000002
WPUB3                             00000003
WPUB4                             00000004
WPUB5                             00000005
WPUB6                             00000006
WPUB7                             00000007
WR                                00000001
WREN                              00000002
WRERR                             00000003
WUE                               00000001
W_TEMP                            00000070
Z                                 00000002
_.org_2_0076                      00000076
_BOR21V                           00003EFF
_BOR40V                           00003FFF
_BOR4V_BOR21V                     00003EFF
_BOR4V_BOR40V                     00003FFF
_BOREN_NSLEEP                     00003EFF
_BOREN_OFF                        00003CFF
_BOREN_ON                         00003FFF
_BOREN_SBODEN                     00003DFF
_BOR_NSLEEP                       00003EFF
_BOR_OFF                          00003CFF
_BOR_ON                           00003FFF
_BOR_SBODEN                       00003DFF
_CONFIG1                          00002007
_CONFIG2                          00002008
_CPD_OFF                          00003FFF
_CPD_ON                           00003F7F
_CP_OFF                           00003FFF
_CP_ON                            00003FBF
_DEBUG_OFF                        00003FFF
_DEBUG_ON                         00001FFF
_DEVID1                           00002006
_EC_OSC                           00003FFB
_EXTRC                            00003FFF
_EXTRCIO                          00003FFE
_EXTRC_OSC_CLKOUT                 00003FFF
_EXTRC_OSC_NOCLKOUT               00003FFE
_FCMEN_OFF                        000037FF
_FCMEN_ON                         00003FFF
_FOSC_EC                          00003FFB
_FOSC_EXTRC_CLKOUT                00003FFF
MPASM 5.87                      ASCENSOR.ASM   6-19-2023  23:52:22         PAGE 18


SYMBOL TABLE
  LABEL                             VALUE 

_FOSC_EXTRC_NOCLKOUT              00003FFE
_FOSC_HS                          00003FFA
_FOSC_INTRC_CLKOUT                00003FFD
_FOSC_INTRC_NOCLKOUT              00003FFC
_FOSC_LP                          00003FF8
_FOSC_XT                          00003FF9
_HS_OSC                           00003FFA
_IDLOC0                           00002000
_IDLOC1                           00002001
_IDLOC2                           00002002
_IDLOC3                           00002003
_IESO_OFF                         00003BFF
_IESO_ON                          00003FFF
_INTOSC                           00003FFD
_INTOSCIO                         00003FFC
_INTRC_OSC_CLKOUT                 00003FFD
_INTRC_OSC_NOCLKOUT               00003FFC
_LP_OSC                           00003FF8
_LVP_OFF                          00002FFF
_LVP_ON                           00003FFF
_MCLRE_OFF                        00003FDF
_MCLRE_ON                         00003FFF
_PWRTE_OFF                        00003FFF
_PWRTE_ON                         00003FEF
_WDTE_OFF                         00003FF7
_WDTE_ON                          00003FFF
_WDT_OFF                          00003FF7
_WDT_ON                           00003FFF
_WRT_1FOURTH                      00003BFF
_WRT_256                          00003DFF
_WRT_HALF                         000039FF
_WRT_OFF                          00003FFF
_XT_OSC                           00003FF9
__16F887                          00000001
__DEBUG                           
__MPLAB_DEBUGGER_SIMULATOR        1

Errors   :     0
Warnings :     0 reported,     0 suppressed
Messages :    13 reported,     0 suppressed

